; Function Attrs: nounwind uwtable
define noalias noundef ptr @SparseMatrix_symmetrize(ptr noundef captures(address_is_null) %0, i1 noundef zeroext %1) local_unnamed_addr #0 {
  %3 = tail call zeroext i1 @SparseMatrix_is_symmetric(ptr noundef %0, i1 noundef zeroext %1)
  br i1 %3, label %4, label %6

4:                                                ; preds = %2
  %5 = tail call ptr @SparseMatrix_copy(ptr noundef %0)
  br label %18

6:                                                ; preds = %2
  %7 = tail call ptr @SparseMatrix_transpose(ptr noundef %0)
  %.not = icmp eq ptr %7, null
  br i1 %.not, label %18, label %SparseMatrix_delete.exit

SparseMatrix_delete.exit:                         ; preds = %6
  %8 = tail call ptr @SparseMatrix_add(ptr noundef %0, ptr noundef nonnull %7)
  %9 = getelementptr inbounds nuw i8, ptr %7, i64 24
  %10 = load ptr, ptr %9, align 8, !tbaa !3
  tail call void @free(ptr noundef %10) #17
  %11 = getelementptr inbounds nuw i8, ptr %7, i64 32
  %12 = load ptr, ptr %11, align 8, !tbaa !12
  tail call void @free(ptr noundef %12) #17
  %13 = getelementptr inbounds nuw i8, ptr %7, i64 40
  %14 = load ptr, ptr %13, align 8, !tbaa !13
  tail call void @free(ptr noundef %14) #17
  tail call void @free(ptr noundef nonnull %7) #17
  %15 = getelementptr inbounds nuw i8, ptr %8, i64 52
  %16 = load i8, ptr %15, align 4
  %17 = or i8 %16, 3
  store i8 %17, ptr %15, align 4
  br label %18

18:                                               ; preds = %6, %SparseMatrix_delete.exit, %4
  %.0 = phi ptr [ %5, %4 ], [ %8, %SparseMatrix_delete.exit ], [ null, %6 ]
  ret ptr %.0
}